target datalayout = "e-m:e-p270:32:32-p271:32:32-p272:64:64-i64:64-i128:128-f80:128-n8:16:32:64-S128"
target triple = "x86_64-pc-linux-gnu"

%struct._zend_refcounted_h = type { i32, %union.anon }
%union.anon = type { i32 }
%struct._zend_string = type { %struct._zend_refcounted_h, i64, i64, [1 x i8] }

; Function Attrs: nounwind uwtable
define zeroext i1 @_vgr00000ZU_NONE_zend_string_equal_val(ptr noundef %0, ptr noundef %1) #0 {
  %3 = alloca ptr, align 8
  %4 = alloca ptr, align 8
  store ptr %0, ptr %3, align 8
  store ptr %1, ptr %4, align 8
  %5 = load ptr, ptr %3, align 8
  %6 = getelementptr inbounds %struct._zend_string, ptr %5, i32 0, i32 3
  %7 = getelementptr inbounds [1 x i8], ptr %6, i64 0, i64 0
  %8 = load ptr, ptr %4, align 8
  %9 = getelementptr inbounds %struct._zend_string, ptr %8, i32 0, i32 3
  %10 = getelementptr inbounds [1 x i8], ptr %9, i64 0, i64 0
  %11 = load ptr, ptr %3, align 8
  %12 = getelementptr inbounds %struct._zend_string, ptr %11, i32 0, i32 2
  %13 = load i64, ptr %12, align 8
  %14 = call i32 @memcmp(ptr noundef %7, ptr noundef %10, i64 noundef %13) #11
  %15 = icmp ne i32 %14, 0
  %16 = xor i1 %15, true
  ret i1 %16
}