; Function Attrs: mustprogress nofree nounwind willreturn memory(argmem: read) uwtable
define zeroext i1 @_vgr00000ZU_NONE_zend_string_equal_val(ptr nocapture noundef readonly %0, ptr nocapture noundef readonly %1) local_unnamed_addr #10 {
  %3 = getelementptr inbounds i8, ptr %0, i64 24
  %4 = getelementptr inbounds i8, ptr %1, i64 24
  %5 = getelementptr inbounds i8, ptr %0, i64 16
  %6 = load i64, ptr %5, align 8
  %bcmp = tail call i32 @bcmp(ptr nonnull %3, ptr nonnull %4, i64 %6)
  %.not = icmp eq i32 %bcmp, 0
  ret i1 %.not
}